target datalayout = "e-m:e-p270:32:32-p271:32:32-p272:64:64-i64:64-i128:128-f80:128-n8:16:32:64-S128"
target triple = "x86_64-pc-linux-gnu"

; Function Attrs: mustprogress uwtable
define noundef i64 @_ZN5folly8external8farmhash10farmhashuo6Hash64EPKcm(ptr noundef %0, i64 noundef %1) #0 {
  %3 = alloca ptr, align 8
  %4 = alloca i64, align 8
  store ptr %0, ptr %3, align 8, !tbaa !7
  store i64 %1, ptr %4, align 8, !tbaa !12
  %5 = load i64, ptr %4, align 8, !tbaa !12
  %6 = icmp ule i64 %5, 64
  br i1 %6, label %7, label %11

7:                                                ; preds = %2
  %8 = load ptr, ptr %3, align 8, !tbaa !7
  %9 = load i64, ptr %4, align 8, !tbaa !12
  %10 = call noundef i64 @_ZN5folly8external8farmhash10farmhashna6Hash64EPKcm(ptr noundef %8, i64 noundef %9)
  br label %15

11:                                               ; preds = %2
  %12 = load ptr, ptr %3, align 8, !tbaa !7
  %13 = load i64, ptr %4, align 8, !tbaa !12
  %14 = call noundef i64 @_ZN5folly8external8farmhash10farmhashuo15Hash64WithSeedsEPKcmmm(ptr noundef %12, i64 noundef %13, i64 noundef 81, i64 noundef 0)
  br label %15

15:                                               ; preds = %11, %7
  %16 = phi i64 [ %10, %7 ], [ %14, %11 ]
  ret i64 %16
}