; Function Attrs: mustprogress nofree norecurse nosync nounwind willreturn memory(argmem: read) uwtable
define noundef i64 @_ZN5folly8external8farmhash10farmhashuo6Hash64EPKcm(ptr noundef readonly captures(address) %0, i64 noundef %1) local_unnamed_addr #0 {
  %3 = icmp ult i64 %1, 65
  br i1 %3, label %4, label %6

4:                                                ; preds = %2
  %5 = tail call noundef i64 @_ZN5folly8external8farmhash10farmhashna6Hash64EPKcm(ptr noundef %0, i64 noundef %1)
  br label %8

6:                                                ; preds = %2
  %7 = tail call noundef i64 @_ZN5folly8external8farmhash10farmhashuo15Hash64WithSeedsEPKcmmm(ptr noundef %0, i64 noundef %1, i64 noundef 81, i64 noundef 0)
  br label %8

8:                                                ; preds = %6, %4
  %9 = phi i64 [ %5, %4 ], [ %7, %6 ]
  ret i64 %9
}